; Function Attrs: mustprogress noinline uwtable
define dso_local noundef ptr @_ZN4absl13base_internal13LowLevelAlloc5AllocEm(i64 noundef %0) local_unnamed_addr #4 section "malloc_hook" align 2 personality ptr @__gxx_personality_v0 {
  %2 = load atomic i32, ptr @_ZN4absl13base_internal12_GLOBAL__N_119create_globals_onceE acquire, align 4
  %.not.i.i = icmp eq i32 %2, 221
  br i1 %.not.i.i, label %_ZN4absl13base_internal13LowLevelAlloc12DefaultArenaEv.exit, label %3, !prof !4

3:                                                ; preds = %1
  tail call void @_ZN4absl13base_internal12CallOnceImplIRFvvEJEEEvPSt6atomicIjENS0_14SchedulingModeEOT_DpOT0_(ptr noundef nonnull @_ZN4absl13base_internal12_GLOBAL__N_119create_globals_onceE, i32 noundef 0, ptr noundef nonnull @_ZN4absl13base_internal12_GLOBAL__N_118CreateGlobalArenasEv)
  br label %_ZN4absl13base_internal13LowLevelAlloc12DefaultArenaEv.exit

_ZN4absl13base_internal13LowLevelAlloc12DefaultArenaEv.exit: ; preds = %1, %3
  %4 = tail call fastcc noundef ptr @_ZN4absl13base_internalL16DoAllocWithArenaEmPNS0_13LowLevelAlloc5ArenaE(i64 noundef %0, ptr noundef nonnull @_ZN4absl13base_internal12_GLOBAL__N_121default_arena_storageE)
  ret ptr %4
}